target datalayout = "e-m:e-p270:32:32-p271:32:32-p272:64:64-i64:64-i128:128-f80:128-n8:16:32:64-S128"
target triple = "x86_64-pc-linux-gnu"

%struct.fsck_object_report = type { ptr, i32 }

@.str.26 = private unnamed_addr constant [14 x i8] c"object %s: %s\00", align 1

; Function Attrs: inlinehint nounwind uwtable
define internal i32 @const_error() #2 {
  ret i32 -1
}

; Function Attrs: nounwind uwtable
define dso_local i32 @fsck_objects_error_function(ptr noundef %0, ptr noundef %1, i32 noundef %2, i32 noundef %3, ptr noundef %4) #0 {
  %6 = alloca i32, align 4
  %7 = alloca ptr, align 8
  %8 = alloca ptr, align 8
  %9 = alloca i32, align 4
  %10 = alloca i32, align 4
  %11 = alloca ptr, align 8
  %12 = alloca ptr, align 8
  %13 = alloca ptr, align 8
  %14 = alloca i32, align 4
  store ptr %0, ptr %7, align 8, !tbaa !24
  store ptr %1, ptr %8, align 8, !tbaa !33
  store i32 %2, ptr %9, align 4, !tbaa !11
  store i32 %3, ptr %10, align 4, !tbaa !11
  store ptr %4, ptr %11, align 8, !tbaa !9
  call void @llvm.lifetime.start.p0(i64 8, ptr %12) #11
  %15 = load ptr, ptr %8, align 8, !tbaa !33
  store ptr %15, ptr %12, align 8, !tbaa !140
  call void @llvm.lifetime.start.p0(i64 8, ptr %13) #11
  %16 = load ptr, ptr %12, align 8, !tbaa !140
  %17 = getelementptr inbounds nuw %struct.fsck_object_report, ptr %16, i32 0, i32 0
  %18 = load ptr, ptr %17, align 8, !tbaa !120
  store ptr %18, ptr %13, align 8, !tbaa !69
  %19 = load i32, ptr %9, align 4, !tbaa !11
  %20 = icmp eq i32 %19, 4
  br i1 %20, label %21, label %26

21:                                               ; preds = %5
  %22 = load ptr, ptr %7, align 8, !tbaa !24
  %23 = load ptr, ptr %13, align 8, !tbaa !69
  %24 = call ptr @fsck_describe_object(ptr noundef %22, ptr noundef %23)
  %25 = load ptr, ptr %11, align 8, !tbaa !9
  call void (ptr, ...) @warning(ptr noundef @.str.26, ptr noundef %24, ptr noundef %25)
  store i32 0, ptr %6, align 4
  store i32 1, ptr %14, align 4
  br label %33

26:                                               ; preds = %5
  %27 = load ptr, ptr %7, align 8, !tbaa !24
  %28 = load ptr, ptr %13, align 8, !tbaa !69
  %29 = call ptr @fsck_describe_object(ptr noundef %27, ptr noundef %28)
  %30 = load ptr, ptr %11, align 8, !tbaa !9
  %31 = call i32 (ptr, ...) @error(ptr noundef @.str.26, ptr noundef %29, ptr noundef %30)
  %32 = call i32 @const_error()
  store i32 1, ptr %6, align 4
  store i32 1, ptr %14, align 4
  br label %33

33:                                               ; preds = %26, %21
  call void @llvm.lifetime.end.p0(i64 8, ptr %13) #11
  call void @llvm.lifetime.end.p0(i64 8, ptr %12) #11
  %34 = load i32, ptr %6, align 4
  ret i32 %34
}