; Function Attrs: nounwind uwtable
define dso_local range(i32 0, 2) i32 @fsck_objects_error_function(ptr noundef readonly captures(none) %0, ptr noundef readonly captures(none) %1, i32 noundef %2, i32 noundef %3, ptr noundef %4) local_unnamed_addr #0 {
  %6 = load ptr, ptr %1, align 8, !tbaa !99
  %7 = icmp eq i32 %2, 4
  %8 = tail call ptr @fsck_describe_object(ptr noundef %0, ptr noundef %6)
  br i1 %7, label %9, label %10

9:                                                ; preds = %5
  tail call void (ptr, ...) @warning(ptr noundef nonnull @.str.26, ptr noundef %8, ptr noundef %4) #16
  br label %12

10:                                               ; preds = %5
  %11 = tail call i32 (ptr, ...) @error(ptr noundef nonnull @.str.26, ptr noundef %8, ptr noundef %4) #16
  br label %12

12:                                               ; preds = %10, %9
  %.0 = phi i32 [ 0, %9 ], [ 1, %10 ]
  ret i32 %.0
}